

Microchip Technology PIC18 LITE Macro Assembler V1.30 build 55553 
                                                                                               Sun Aug 17 23:20:27 2014

Microchip Technology Omniscient Code Generator (Lite mode) build 55553
     1                           	processor	18F26K22
     2                           	fnconf	rparam,??,?,0
     3                           	opt	pw 120
     4                           	opt	lm
     5                           	psect	idataCOMRAM,global,class=CODE,delta=1
     6                           	psect	smallconst,global,reloc=2,class=SMALLCONST,delta=1
     7                           	psect	cinit,global,reloc=2,class=CODE,delta=1
     8                           	psect	bssCOMRAM,global,class=COMRAM,space=1,delta=1
     9                           	psect	dataCOMRAM,global,class=COMRAM,space=1,delta=1
    10                           	psect	cstackCOMRAM,global,class=COMRAM,space=1,delta=1
    11                           	psect	text0,global,reloc=2,class=CODE,delta=1
    12                           	psect	text1,global,reloc=2,class=CODE,delta=1
    13                           	psect	text2,global,reloc=2,class=CODE,delta=1
    14                           	psect	text3,global,reloc=2,class=CODE,delta=1
    15                           	psect	intcodelo,global,reloc=2,class=CODE,delta=1
    16                           	psect	intcode,global,reloc=2,class=CODE,delta=1
    17                           	psect	intcode_body,global,reloc=2,class=CODE,delta=1
    18                           	psect	intsave_regs,global,class=BIGRAM,space=1,delta=1
    19                           	psect	rparam,global,class=COMRAM,space=1,delta=1
    20  0000                     
    21 ;; Function _SetFreq_31_25KHZ is unused but had its address taken
    22  0000                     
    23 ;; Function _SetFreq_250KHZ is unused but had its address taken
    24  0000                     
    25 ;; Function _SetFreq_500KHZ is unused but had its address taken
    26  0000                     
    27 ;; Function _SetFreq_1MHZ is unused but had its address taken
    28  0000                     
    29 ;; Function _SetFreq_2MHZ is unused but had its address taken
    30  0000                     
    31 ;; Function _SetFreq_4MHZ is unused but had its address taken
    32  0000                     
    33 ;; Function _SetFreq_16MHZ is unused but had its address taken
    34  0000                     
    35 ;; Function _SetFreq_32MHZ is unused but had its address taken
    36  0000                     
    37 ;; Function _SetFreq_64MHZ is unused but had its address taken
    38  0000                     
    39 ;; Function _GetFreq is unused but had its address taken
    40  0000                     
    41 ;; Function _SetTimer0_130milliSec is unused but had its address taken
    42  0000                     
    43 ;; Function _SetTimer0_16milliSec is unused but had its address taken
    44  0000                     
    45 ;; Function _SetTimer0_1millSec is unused but had its address taken
    46  0000                     
    47 ;; Function _SetTimer0 is unused but had its address taken
    48  0000                     
    49 ;; Function _Timer0Int is unused but had its address taken
    50  0000                     
    51 ;; Function _SetTimer1 is unused but had its address taken
    52  0000                     
    53 ;; Function _Timer1Int is unused but had its address taken
    54  0000                     
    55 ;; Function _SetTimer2_1millSec is unused but had its address taken
    56  0000                     
    57 ;; Function _SetTimer2_100microSec is unused but had its address taken
    58  0000                     
    59 ;; Function _Timer2Int is unused but had its address taken
    60  0000                     
    61                           	psect	idataCOMRAM
    62  00126C                     __pidataCOMRAM:
    63                           	opt stack 0
    64                           
    65                           ;initializer for _Oscillator
    66  00126C  0000               	dw	0
    67  00126E  0000               	dw	0
    68  001270  0000               	dw	0
    69  001272  0000               	dw	0
    70  001274  0000               	dw	0
    71  001276  0000               	dw	0
    72  001278  122C               	dw	_SetFreq_8MHZ& (0+65535)
    73  00127A  0000               	dw	0
    74  00127C  0000               	dw	0
    75  00127E  0000               	dw	0
    76  001280  0000               	dw	0
    77                           
    78                           ;initializer for _OscFreq
    79  001282  4240               	dw	16960
    80  001284  000F               	dw	15
    81                           
    82                           ;initializer for _OscFreqIndex
    83  001286  03                 	db	3
    84                           
    85                           	psect	smallconst
    86  001000                     __psmallconst:
    87                           	opt stack 0
    88  001000  00                 	db	0
    89  001001                     _Timer0:
    90                           	opt stack 0
    91  001001  124E               	dw	_SetTimer0_1Sec& (0+65535)
    92  001003  0000               	dw	0
    93  001005  0000               	dw	0
    94  001007  0000               	dw	0
    95  001009  0000               	dw	0
    96  00100B  0000               	dw	0
    97  00100D  3A                 	db	58
    98  00100E  2C                 	db	44
    99  00100F  7E                 	db	126
   100  001010                     __end_of_Timer0:
   101                           	opt stack 0
   102  001010                     _Timer2:
   103                           	opt stack 0
   104  001010  0000               	dw	0
   105  001012  0000               	dw	0
   106  001014  1202               	dw	_SetTimer2& (0+65535)
   107  001016  0000               	dw	0
   108  001018  AA                 	db	170
   109  001019  B3                 	db	179
   110  00101A  3E                 	db	62
   111  00101B  98                 	db	152
   112  00101C  BA                 	db	186
   113  00101D  DC                 	db	220
   114  00101E  FE                 	db	254
   115  00101F                     __end_of_Timer2:
   116                           	opt stack 0
   117  00101F                     _TIMER0_130mSec:
   118                           	opt stack 0
   119  00101F  C1                 	db	193
   120  001020  C4                 	db	196
   121  001021  C5                 	db	197
   122  001022  C6                 	db	198
   123  001023  C7                 	db	199
   124  001024  80                 	db	128
   125  001025  81                 	db	129
   126  001026  82                 	db	130
   127  001027  83                 	db	131
   128  001028  84                 	db	132
   129  001029                     __end_of_TIMER0_130mSec:
   130                           	opt stack 0
   131  001029                     _TIMER0_1Sec:
   132                           	opt stack 0
   133  001029  C4                 	db	196
   134  00102A  C7                 	db	199
   135  00102B  80                 	db	128
   136  00102C  81                 	db	129
   137  00102D  82                 	db	130
   138  00102E  83                 	db	131
   139  00102F  84                 	db	132
   140  001030  85                 	db	133
   141  001031  86                 	db	134
   142  001032  87                 	db	135
   143  001033                     __end_of_TIMER0_1Sec:
   144                           	opt stack 0
   145  001033                     _TIMER2_100usec:
   146                           	opt stack 0
   147  001033  84                 	db	132
   148  001034  84                 	db	132
   149  001035  84                 	db	132
   150  001036  84                 	db	132
   151  001037  84                 	db	132
   152  001038  84                 	db	132
   153  001039  8C                 	db	140
   154  00103A  9C                 	db	156
   155  00103B  BC                 	db	188
   156  00103C  00                 	db	0
   157  00103D                     __end_of_TIMER2_100usec:
   158                           	opt stack 0
   159  00103D                     _TIMER2_1msec:
   160                           	opt stack 0
   161  00103D  84                 	db	132
   162  00103E  84                 	db	132
   163  00103F  84                 	db	132
   164  001040  84                 	db	132
   165  001041  CC                 	db	204
   166  001042  CC                 	db	204
   167  001043  CC                 	db	204
   168  001044  A5                 	db	165
   169  001045  CD                 	db	205
   170  001046  A7                 	db	167
   171  001047                     __end_of_TIMER2_1msec:
   172                           	opt stack 0
   173  001047                     _TIMER2_PR2_1msec:
   174                           	opt stack 0
   175  001047  08                 	db	8
   176  001048  3E                 	db	62
   177  001049  7D                 	db	125
   178  00104A  FA                 	db	250
   179  00104B  32                 	db	50
   180  00104C  64                 	db	100
   181  00104D  C8                 	db	200
   182  00104E  C8                 	db	200
   183  00104F  C8                 	db	200
   184  001050  C8                 	db	200
   185  001051                     __end_of_TIMER2_PR2_1msec:
   186                           	opt stack 0
   187  001051                     _TIMER0_16mSec:
   188                           	opt stack 0
   189  001051  C1                 	db	193
   190  001052  C2                 	db	194
   191  001053  C3                 	db	195
   192  001054  C4                 	db	196
   193  001055  C5                 	db	197
   194  001056  C6                 	db	198
   195  001057  C7                 	db	199
   196  001058  80                 	db	128
   197  001059  81                 	db	129
   198  00105A                     __end_of_TIMER0_16mSec:
   199                           	opt stack 0
   200  00105A                     _TIMER2_PR2_100usec:
   201                           	opt stack 0
   202  00105A  06                 	db	6
   203  00105B  0D                 	db	13
   204  00105C  19                 	db	25
   205  00105D  32                 	db	50
   206  00105E  64                 	db	100
   207  00105F  C8                 	db	200
   208  001060  C8                 	db	200
   209  001061  C8                 	db	200
   210  001062  C8                 	db	200
   211  001063                     __end_of_TIMER2_PR2_100usec:
   212                           	opt stack 0
   213  001063                     _TIMER0_1mSec:
   214                           	opt stack 0
   215  001063  C0                 	db	192
   216  001064  C1                 	db	193
   217  001065  C2                 	db	194
   218  001066  C3                 	db	195
   219  001067  C4                 	db	196
   220  001068  C5                 	db	197
   221  001069                     __end_of_TIMER0_1mSec:
   222                           	opt stack 0
   223  001069                     _Timer1:
   224                           	opt stack 0
   225  001069  0000               	dw	0
   226  00106B  0000               	dw	0
   227  00106D  3A                 	db	58
   228  00106E                     __end_of_Timer1:
   229                           	opt stack 0
   230  0000                     _PinDirection	set	3986
   231  0000                     _PinFunction	set	3896
   232  0000                     _PinWrite	set	3977
   233  0000                     _INTCONbits	set	4082
   234  0000                     _IPR1bits	set	3999
   235  0000                     _OSCCON	set	4051
   236  0000                     _OSCCON2bits	set	4050
   237  0000                     _OSCCONbits	set	4051
   238  0000                     _OSCTUNEbits	set	3995
   239  0000                     _PIE1bits	set	3997
   240  0000                     _PIR1bits	set	3998
   241  0000                     _PR2	set	4027
   242  0000                     _RCONbits	set	4048
   243  0000                     _T0CON	set	4053
   244  0000                     _T0CONbits	set	4053
   245  0000                     _T1CONbits	set	4045
   246  0000                     _T2CON	set	4026
   247  0000                     _T2CONbits	set	4026
   248                           
   249                           ; #config settings
   250  00106E  00                 	db	0	; dummy byte at the end
   251  0000                     
   252                           	psect	cinit
   253  0011D8                     __pcinit:
   254                           	opt stack 0
   255  0011D8                     start_initialization:
   256                           	opt stack 0
   257  0011D8                     __initialization:
   258                           	opt stack 0
   259                           
   260                           ; Clear objects allocated to COMRAM (2 bytes)
   261  0011D8  6A45               	clrf	(__pbssCOMRAM+1)& (0+255),c
   262  0011DA  6A44               	clrf	__pbssCOMRAM& (0+255),c
   263                           
   264                           ; Initialize objects allocated to COMRAM (27 bytes)
   265                           ; load TBLPTR registers with __pidataCOMRAM
   266  0011DC  0E6C               	movlw	low __pidataCOMRAM
   267  0011DE  6EF6               	movwf	tblptrl,c
   268  0011E0  0E12               	movlw	high __pidataCOMRAM
   269  0011E2  6EF7               	movwf	tblptrh,c
   270  0011E4  0E00               	movlw	low (__pidataCOMRAM shr (0+16))
   271  0011E6  6EF8               	movwf	tblptru,c
   272  0011E8  EE00  F029         	lfsr	0,__pdataCOMRAM
   273  0011EC  EE10 F01B          	lfsr	1,27
   274  0011F0                     copy_data0:
   275  0011F0  0009               	tblrd		*+
   276  0011F2  CFF5 FFEE          	movff	tablat,postinc0
   277  0011F6  50E5               	movf	postdec1,w,c
   278  0011F8  50E1               	movf	fsr1l,w,c
   279  0011FA  E1FA               	bnz	copy_data0
   280  0011FC                     end_of_initialization:
   281                           	opt stack 0
   282  0011FC                     __end_of__initialization:
   283                           	opt stack 0
   284  0011FC  0100               	movlb	0
   285  0011FE  EF38  F008         	goto	_main	;jump to C main() function
   286                           tblptru	equ	0xFF8
   287                           tblptrh	equ	0xFF7
   288                           tblptrl	equ	0xFF6
   289                           tablat	equ	0xFF5
   290                           postinc0	equ	0xFEE
   291                           postdec1	equ	0xFE5
   292                           fsr1l	equ	0xFE1
   293                           
   294                           	psect	bssCOMRAM
   295  000044                     __pbssCOMRAM:
   296                           	opt stack 0
   297  000044                     _delayCount:
   298                           	opt stack 0
   299  000044                     	ds	2
   300                           tblptru	equ	0xFF8
   301                           tblptrh	equ	0xFF7
   302                           tblptrl	equ	0xFF6
   303                           tablat	equ	0xFF5
   304                           postinc0	equ	0xFEE
   305                           postdec1	equ	0xFE5
   306                           fsr1l	equ	0xFE1
   307                           
   308                           	psect	dataCOMRAM
   309  000029                     __pdataCOMRAM:
   310                           	opt stack 0
   311  000029                     _Oscillator:
   312                           	opt stack 0
   313  000029                     	ds	22
   314  00003F                     _OscFreq:
   315                           	opt stack 0
   316  00003F                     	ds	4
   317  000043                     _OscFreqIndex:
   318                           	opt stack 0
   319  000043                     	ds	1
   320                           tblptru	equ	0xFF8
   321                           tblptrh	equ	0xFF7
   322                           tblptrl	equ	0xFF6
   323                           tablat	equ	0xFF5
   324                           postinc0	equ	0xFEE
   325                           postdec1	equ	0xFE5
   326                           fsr1l	equ	0xFE1
   327                           
   328                           	psect	cstackCOMRAM
   329  000001                     __pcstackCOMRAM:
   330                           	opt stack 0
   331  000001                     ??_LowPriority_InterruptHandler:
   332  000001                     
   333                           ; 1 bytes @ 0x0
   334  000001                     	ds	17
   335  000012                     ??_HighPriority_InterruptHandler:
   336                           
   337                           ; 0 bytes @ 0x11
   338  000012                     	ds	14
   339  000020                     ??_SetFreq_8MHZ:
   340  000020                     SetTimer2@postscalar:
   341                           	opt stack 0
   342                           
   343                           ; 1 bytes @ 0x1F
   344  000020                     	ds	1
   345  000021                     SetTimer2@period:
   346                           	opt stack 0
   347                           
   348                           ; 1 bytes @ 0x20
   349  000021                     	ds	1
   350  000022                     ??_SetTimer2:
   351                           
   352                           ; 0 bytes @ 0x21
   353  000022                     	ds	1
   354  000023                     SetTimer2@prescalar:
   355                           	opt stack 0
   356                           
   357                           ; 1 bytes @ 0x22
   358  000023                     	ds	1
   359  000024                     ??_main:
   360                           
   361                           ; 0 bytes @ 0x23
   362  000024                     	ds	5
   363                           tblptru	equ	0xFF8
   364                           tblptrh	equ	0xFF7
   365                           tblptrl	equ	0xFF6
   366                           tablat	equ	0xFF5
   367                           postinc0	equ	0xFEE
   368                           postdec1	equ	0xFE5
   369                           fsr1l	equ	0xFE1
   370                           
   371 ;;
   372 ;;Main: autosize = 0, tempsize = 5, incstack = 0, save=0
   373 ;;
   374 ;; *************** function _main *****************
   375 ;; Defined at:
   376 ;;		line 50 in file "main.c"
   377 ;; Parameters:    Size  Location     Type
   378 ;;		None
   379 ;; Auto vars:     Size  Location     Type
   380 ;;		None
   381 ;; Return value:  Size  Location     Type
   382 ;;		None               void
   383 ;; Registers used:
   384 ;;		wreg, fsr0l, fsr0h, fsr1l, fsr1h, fsr1l, fsr1h, fsr2l, fsr2h, status,2, status,0, pclat, btemp, btemp+1, btemp+2, bt
      +emp+3, btemp+4, btemp+5, btemp+6, btemp+7, btemp+8, btemp+9, btemp+10, btemp+11, tosl, structret, tblptrl, tblptrh, tblp
      +tru, prodl, prodh, bsr, cstack
   385 ;; Tracked objects:
   386 ;;		On entry : 0/0
   387 ;;		On exit  : 0/0
   388 ;;		Unchanged: 0/0
   389 ;; Data sizes:     COMRAM   BANK0   BANK1   BANK2   BANK3   BANK4   BANK5   BANK6   BANK7   BANK8   BANK9  BANK10  BANK1
      +1  BANK12  BANK13  BANK14  BANK15
   390 ;;      Params:         0       0       0       0       0       0       0       0       0       0       0       0       
      +0       0       0       0       0
   391 ;;      Locals:         0       0       0       0       0       0       0       0       0       0       0       0       
      +0       0       0       0       0
   392 ;;      Temps:          5       0       0       0       0       0       0       0       0       0       0       0       
      +0       0       0       0       0
   393 ;;      Totals:         5       0       0       0       0       0       0       0       0       0       0       0       
      +0       0       0       0       0
   394 ;;Total ram usage:        5 bytes
   395 ;; Hardware stack levels required when called:    3
   396 ;; This function calls:
   397 ;;		_SetFreq_8MHZ
   398 ;;		_SetTimer0_1Sec
   399 ;;		_SetTimer2
   400 ;; This function is called by:
   401 ;;		Startup code after reset
   402 ;; This function uses a non-reentrant model
   403 ;;
   404                           
   405                           	psect	text0
   406  001070                     __ptext0:
   407                           	opt stack 0
   408  001070                     _main:
   409                           	opt stack 28
   410                           
   411                           ;main.c: 53: Oscillator.SetFreq_8MHZ();
   412                           
   413                           ;incstack = 0
   414  001070  D801               	call	u18
   415  001072  D009               	goto	u19
   416  001074                     u18:
   417  001074  0005               	push	
   418  001076  6EFA               	movwf	pclath,c
   419  001078  5035               	movf	_Oscillator+12,w,c
   420  00107A  6EFD               	movwf	tosl,c
   421  00107C  5036               	movf	_Oscillator+13,w,c
   422  00107E  6EFE               	movwf	tosh,c
   423  001080  6AFF               	clrf	tosu,c
   424  001082  50FA               	movf	pclath,w,c
   425  001084  0012               	return		;indir
   426  001086                     u19:
   427                           
   428                           ;main.c: 55: Timer0.SetPeriod_1Sec();
   429  001086  0E01               	movlw	low _Timer0
   430  001088  6EF6               	movwf	tblptrl,c
   431  00108A  0E10               	movlw	high _Timer0
   432  00108C  6EF7               	movwf	tblptrh,c
   433  00108E  0E00               	movlw	low (_Timer0 shr (0+16))
   434  001090  6EF8               	movwf	tblptru,c
   435  001092  0009               	tblrd		*+
   436  001094  CFF5 F024          	movff	tablat,??_main
   437  001098  0009               	tblrd		*+
   438  00109A  CFF5 F025          	movff	tablat,??_main+1
   439  00109E  D801               	call	u28
   440  0010A0  D009               	goto	u29
   441  0010A2                     u28:
   442  0010A2  0005               	push	
   443  0010A4  6EFA               	movwf	pclath,c
   444  0010A6  5024               	movf	??_main,w,c
   445  0010A8  6EFD               	movwf	tosl,c
   446  0010AA  5025               	movf	??_main+1,w,c
   447  0010AC  6EFE               	movwf	tosh,c
   448  0010AE  6AFF               	clrf	tosu,c
   449  0010B0  50FA               	movf	pclath,w,c
   450  0010B2  0012               	return		;indir
   451  0010B4                     u29:
   452                           
   453                           ;main.c: 56: Timer2.SetPeriod(Timer2.config.PRESCALER_16,Timer2.config.POSTSCALER_16,255
      +                          );
   454  0010B4  0E14               	movlw	low (_Timer2+4)
   455  0010B6  6EF6               	movwf	tblptrl,c
   456  0010B8  0E10               	movlw	high (_Timer2+4)
   457  0010BA  6EF7               	movwf	tblptrh,c
   458  0010BC  0E00               	movlw	low (__mediumconst shr (0+16))
   459  0010BE  6EF8               	movwf	tblptru,c
   460  0010C0  0009               	tblrd		*+
   461  0010C2  CFF5 F024          	movff	tablat,??_main
   462  0010C6  0009               	tblrd		*+
   463  0010C8  CFF5 F025          	movff	tablat,??_main+1
   464  0010CC  D801               	call	u38
   465  0010CE  D025               	goto	u39
   466  0010D0                     u38:
   467  0010D0  0005               	push	
   468  0010D2  6EFA               	movwf	pclath,c
   469  0010D4  5024               	movf	??_main,w,c
   470  0010D6  6EFD               	movwf	tosl,c
   471  0010D8  5025               	movf	??_main+1,w,c
   472  0010DA  6EFE               	movwf	tosh,c
   473  0010DC  6AFF               	clrf	tosu,c
   474  0010DE  50FA               	movf	pclath,w,c
   475  0010E0  0E1E               	movlw	low (_Timer2+14)
   476  0010E2  6EF6               	movwf	tblptrl,c
   477  0010E4  0E10               	movlw	high (_Timer2+14)
   478  0010E6  6EF7               	movwf	tblptrh,c
   479  0010E8  0E00               	movlw	low (__mediumconst shr (0+16))
   480  0010EA  6EF8               	movwf	tblptru,c
   481  0010EC  0008               	tblrd		*
   482  0010EE  CFF5 F026          	movff	tablat,??_main+2
   483  0010F2  3826               	swapf	??_main+2,w,c
   484  0010F4  0B0F               	andlw	15
   485  0010F6  6E20               	movwf	SetTimer2@postscalar,c
   486  0010F8  6E27               	movwf	(??_main+3)& (0+255),c
   487  0010FA  0EFF               	movlw	255
   488  0010FC  6E21               	movwf	SetTimer2@period,c
   489  0010FE  5027               	movf	(??_main+3)& (0+255),w,c
   490  001100  0E18               	movlw	low (_Timer2+8)
   491  001102  6EF6               	movwf	tblptrl,c
   492  001104  0E10               	movlw	high (_Timer2+8)
   493  001106  6EF7               	movwf	tblptrh,c
   494  001108  0E00               	movlw	low (__mediumconst shr (0+16))
   495  00110A  6EF8               	movwf	tblptru,c
   496  00110C  0008               	tblrd		*
   497  00110E  CFF5 F028          	movff	tablat,??_main+4
   498  001112  3028               	rrcf	??_main+4,w,c
   499  001114  32E8               	rrcf	wreg,f,c
   500  001116  0B03               	andlw	3
   501  001118  0012               	return		;indir
   502  00111A                     u39:
   503                           
   504                           ;main.c: 58: (PinFunction.TX1 = 0, PinDirection.TX1 = 0 );
   505  00111A  010F               	movlb	15	; () banked
   506  00111C  010F               	movlb	15	; () banked
   507  00111E  9D3A               	bcf	58,6,b	;volatile
   508                           
   509                           ; BSR set to: 15
   510  001120  9C94               	bcf	3988,6,c	;volatile
   511                           
   512                           ; BSR set to: 15
   513                           ;main.c: 59: (PinFunction.RX1 = 0, PinDirection.RX1 = 0 );
   514  001122  010F               	movlb	15	; () banked
   515  001124  010F               	movlb	15	; () banked
   516  001126  9F3A               	bcf	58,7,b	;volatile
   517                           
   518                           ; BSR set to: 15
   519  001128  9E94               	bcf	3988,7,c	;volatile
   520  00112A                     l823:
   521                           
   522                           ;main.c: 63: {
   523                           ;main.c: 64: if(INTCONbits.TMR0IF)
   524  00112A  A4F2               	btfss	intcon,2,c	;volatile
   525  00112C  D00F               	goto	l829
   526                           
   527                           ;main.c: 65: {
   528                           ;main.c: 66: INTCONbits.TMR0IF=0;
   529  00112E  94F2               	bcf	intcon,2,c	;volatile
   530                           
   531                           ;main.c: 67: (PinWrite.TX1 =!PinWrite.TX1);
   532  001130  BC8B               	btfsc	3979,6,c	;volatile
   533  001132  D002               	goto	u50
   534  001134  0E01               	movlw	1
   535  001136  D001               	goto	u56
   536  001138                     u50:
   537  001138  0E00               	movlw	0
   538  00113A                     u56:
   539  00113A  6E24               	movwf	??_main& (0+255),c
   540  00113C  3A24               	swapf	??_main,f,c
   541  00113E  4624               	rlncf	??_main,f,c
   542  001140  4624               	rlncf	??_main,f,c
   543  001142  508B               	movf	3979,w,c	;volatile
   544  001144  1824               	xorwf	??_main,w,c
   545  001146  0BBF               	andlw	-65
   546  001148  1824               	xorwf	??_main,w,c
   547  00114A  6E8B               	movwf	3979,c	;volatile
   548  00114C                     l829:
   549                           
   550                           ;main.c: 68: }
   551                           ;main.c: 69: if(PIR1bits.TMR2IF)
   552  00114C  A29E               	btfss	3998,1,c	;volatile
   553  00114E  D7ED               	goto	l823
   554                           
   555                           ;main.c: 70: {
   556                           ;main.c: 71: PIR1bits.TMR2IF=0;
   557  001150  929E               	bcf	3998,1,c	;volatile
   558                           
   559                           ;main.c: 72: (PinWrite.RX1 =!PinWrite.RX1);
   560  001152  BE8B               	btfsc	3979,7,c	;volatile
   561  001154  D002               	goto	u70
   562  001156  0E01               	movlw	1
   563  001158  D001               	goto	u76
   564  00115A                     u70:
   565  00115A  0E00               	movlw	0
   566  00115C                     u76:
   567  00115C  6E24               	movwf	??_main& (0+255),c
   568  00115E  3224               	rrcf	??_main,f,c
   569  001160  3224               	rrcf	??_main,f,c
   570  001162  508B               	movf	3979,w,c	;volatile
   571  001164  1824               	xorwf	??_main,w,c
   572  001166  0B7F               	andlw	-129
   573  001168  1824               	xorwf	??_main,w,c
   574  00116A  6E8B               	movwf	3979,c	;volatile
   575  00116C  D7DE               	goto	l823
   576  00116E                     __end_of_main:
   577                           	opt stack 0
   578                           tosu	equ	0xFFF
   579                           tosh	equ	0xFFE
   580                           tosl	equ	0xFFD
   581                           pclath	equ	0xFFA
   582                           tblptru	equ	0xFF8
   583                           tblptrh	equ	0xFF7
   584                           tblptrl	equ	0xFF6
   585                           tablat	equ	0xFF5
   586                           intcon	equ	0xFF2
   587                           postinc0	equ	0xFEE
   588                           wreg	equ	0xFE8
   589                           postdec1	equ	0xFE5
   590                           fsr1l	equ	0xFE1
   591                           
   592 ;; *************** function _SetTimer2 *****************
   593 ;; Defined at:
   594 ;;		line 149 in file "EAB_Timer.c"
   595 ;; Parameters:    Size  Location     Type
   596 ;;  prescalar       1    wreg     unsigned char 
   597 ;;  postscalar      1   31[COMRAM] unsigned char 
   598 ;;  period          1   32[COMRAM] unsigned char 
   599 ;; Auto vars:     Size  Location     Type
   600 ;;  prescalar       1   34[COMRAM] unsigned char 
   601 ;; Return value:  Size  Location     Type
   602 ;;                  1    wreg      unsigned char 
   603 ;; Registers used:
   604 ;;		wreg, status,2, status,0
   605 ;; Tracked objects:
   606 ;;		On entry : 0/0
   607 ;;		On exit  : 0/0
   608 ;;		Unchanged: 0/0
   609 ;; Data sizes:     COMRAM   BANK0   BANK1   BANK2   BANK3   BANK4   BANK5   BANK6   BANK7   BANK8   BANK9  BANK10  BANK1
      +1  BANK12  BANK13  BANK14  BANK15
   610 ;;      Params:         2       0       0       0       0       0       0       0       0       0       0       0       
      +0       0       0       0       0
   611 ;;      Locals:         1       0       0       0       0       0       0       0       0       0       0       0       
      +0       0       0       0       0
   612 ;;      Temps:          1       0       0       0       0       0       0       0       0       0       0       0       
      +0       0       0       0       0
   613 ;;      Totals:         4       0       0       0       0       0       0       0       0       0       0       0       
      +0       0       0       0       0
   614 ;;Total ram usage:        4 bytes
   615 ;; Hardware stack levels used:    1
   616 ;; Hardware stack levels required when called:    2
   617 ;; This function calls:
   618 ;;		Nothing
   619 ;; This function is called by:
   620 ;;		_main
   621 ;; This function uses a non-reentrant model
   622 ;;
   623                           
   624                           	psect	text1
   625  001202                     __ptext1:
   626                           	opt stack 0
   627  001202                     _SetTimer2:
   628                           	opt stack 28
   629                           
   630                           ;incstack = 0
   631                           ;SetTimer2@prescalar stored from wreg
   632  001202  CFE8 F023          	movff	wreg,SetTimer2@prescalar
   633  001206  50BA               	movf	4026,w,c	;volatile
   634  001208  1823               	xorwf	SetTimer2@prescalar,w,c
   635  00120A  0BFC               	andlw	-4
   636  00120C  1823               	xorwf	SetTimer2@prescalar,w,c
   637  00120E  6EBA               	movwf	4026,c	;volatile
   638  001210  C020  F022         	movff	SetTimer2@postscalar,??_SetTimer2
   639  001214  4622               	rlncf	??_SetTimer2,f,c
   640  001216  4622               	rlncf	??_SetTimer2,f,c
   641  001218  4622               	rlncf	??_SetTimer2,f,c
   642  00121A  50BA               	movf	4026,w,c	;volatile
   643  00121C  1822               	xorwf	??_SetTimer2,w,c
   644  00121E  0B87               	andlw	-121
   645  001220  1822               	xorwf	??_SetTimer2,w,c
   646  001222  6EBA               	movwf	4026,c	;volatile
   647  001224  84BA               	bsf	4026,2,c	;volatile
   648  001226  C021  FFBB         	movff	SetTimer2@period,4027	;volatile
   649  00122A  0012               	return	
   650  00122C                     __end_of_SetTimer2:
   651                           	opt stack 0
   652                           tosu	equ	0xFFF
   653                           tosh	equ	0xFFE
   654                           tosl	equ	0xFFD
   655                           pclath	equ	0xFFA
   656                           tblptru	equ	0xFF8
   657                           tblptrh	equ	0xFF7
   658                           tblptrl	equ	0xFF6
   659                           tablat	equ	0xFF5
   660                           intcon	equ	0xFF2
   661                           postinc0	equ	0xFEE
   662                           wreg	equ	0xFE8
   663                           postdec1	equ	0xFE5
   664                           fsr1l	equ	0xFE1
   665                           
   666 ;; *************** function _SetTimer0_1Sec *****************
   667 ;; Defined at:
   668 ;;		line 54 in file "EAB_Timer.c"
   669 ;; Parameters:    Size  Location     Type
   670 ;;		None
   671 ;; Auto vars:     Size  Location     Type
   672 ;;		None
   673 ;; Return value:  Size  Location     Type
   674 ;;                  1    wreg      unsigned char 
   675 ;; Registers used:
   676 ;;		wreg, status,2, status,0, tblptrl, tblptrh, tblptru, prodl, prodh
   677 ;; Tracked objects:
   678 ;;		On entry : 0/0
   679 ;;		On exit  : 0/0
   680 ;;		Unchanged: 0/0
   681 ;; Data sizes:     COMRAM   BANK0   BANK1   BANK2   BANK3   BANK4   BANK5   BANK6   BANK7   BANK8   BANK9  BANK10  BANK1
      +1  BANK12  BANK13  BANK14  BANK15
   682 ;;      Params:         0       0       0       0       0       0       0       0       0       0       0       0       
      +0       0       0       0       0
   683 ;;      Locals:         0       0       0       0       0       0       0       0       0       0       0       0       
      +0       0       0       0       0
   684 ;;      Temps:          0       0       0       0       0       0       0       0       0       0       0       0       
      +0       0       0       0       0
   685 ;;      Totals:         0       0       0       0       0       0       0       0       0       0       0       0       
      +0       0       0       0       0
   686 ;;Total ram usage:        0 bytes
   687 ;; Hardware stack levels used:    1
   688 ;; Hardware stack levels required when called:    2
   689 ;; This function calls:
   690 ;;		Nothing
   691 ;; This function is called by:
   692 ;;		_main
   693 ;; This function uses a non-reentrant model
   694 ;;
   695                           
   696                           	psect	text2
   697  00124E                     __ptext2:
   698                           	opt stack 0
   699  00124E                     _SetTimer0_1Sec:
   700                           	opt stack 28
   701                           
   702                           ;incstack = 0
   703  00124E  5043               	movf	_OscFreqIndex,w,c
   704  001250  0D01               	mullw	1
   705  001252  0E29               	movlw	low _TIMER0_1Sec
   706  001254  24F3               	addwf	prodl,w,c
   707  001256  6EF6               	movwf	tblptrl,c
   708  001258  0E10               	movlw	high _TIMER0_1Sec
   709  00125A  20F4               	addwfc	prodh,w,c
   710  00125C  6EF7               	movwf	tblptrh,c
   711  00125E  6AF8               	clrf	tblptru,c
   712  001260  0E00               	movlw	low (__mediumconst shr (0+16))
   713  001262  22F8               	addwfc	tblptru,f,c
   714  001264  0008               	tblrd		*
   715  001266  CFF5 FFD5          	movff	tablat,4053	;volatile
   716  00126A  0012               	return	
   717  00126C                     __end_of_SetTimer0_1Sec:
   718                           	opt stack 0
   719                           tosu	equ	0xFFF
   720                           tosh	equ	0xFFE
   721                           tosl	equ	0xFFD
   722                           pclath	equ	0xFFA
   723                           tblptru	equ	0xFF8
   724                           tblptrh	equ	0xFF7
   725                           tblptrl	equ	0xFF6
   726                           tablat	equ	0xFF5
   727                           prodh	equ	0xFF4
   728                           prodl	equ	0xFF3
   729                           intcon	equ	0xFF2
   730                           postinc0	equ	0xFEE
   731                           wreg	equ	0xFE8
   732                           postdec1	equ	0xFE5
   733                           fsr1l	equ	0xFE1
   734                           
   735 ;; *************** function _SetFreq_8MHZ *****************
   736 ;; Defined at:
   737 ;;		line 85 in file "EAB_Oscillator.c"
   738 ;; Parameters:    Size  Location     Type
   739 ;;		None
   740 ;; Auto vars:     Size  Location     Type
   741 ;;		None
   742 ;; Return value:  Size  Location     Type
   743 ;;                  1    wreg      unsigned char 
   744 ;; Registers used:
   745 ;;		wreg, status,2, status,0
   746 ;; Tracked objects:
   747 ;;		On entry : 0/0
   748 ;;		On exit  : 0/0
   749 ;;		Unchanged: 0/0
   750 ;; Data sizes:     COMRAM   BANK0   BANK1   BANK2   BANK3   BANK4   BANK5   BANK6   BANK7   BANK8   BANK9  BANK10  BANK1
      +1  BANK12  BANK13  BANK14  BANK15
   751 ;;      Params:         0       0       0       0       0       0       0       0       0       0       0       0       
      +0       0       0       0       0
   752 ;;      Locals:         0       0       0       0       0       0       0       0       0       0       0       0       
      +0       0       0       0       0
   753 ;;      Temps:          1       0       0       0       0       0       0       0       0       0       0       0       
      +0       0       0       0       0
   754 ;;      Totals:         1       0       0       0       0       0       0       0       0       0       0       0       
      +0       0       0       0       0
   755 ;;Total ram usage:        1 bytes
   756 ;; Hardware stack levels used:    1
   757 ;; Hardware stack levels required when called:    2
   758 ;; This function calls:
   759 ;;		Nothing
   760 ;; This function is called by:
   761 ;;		_main
   762 ;; This function uses a non-reentrant model
   763 ;;
   764                           
   765                           	psect	text3
   766  00122C                     __ptext3:
   767                           	opt stack 0
   768  00122C                     _SetFreq_8MHZ:
   769                           	opt stack 28
   770                           
   771                           ;incstack = 0
   772  00122C  50D3               	movf	4051,w,c	;volatile
   773  00122E  0B8C               	andlw	140
   774  001230  0962               	iorlw	98
   775  001232  6ED3               	movwf	4051,c	;volatile
   776  001234  6E20               	movwf	??_SetFreq_8MHZ& (0+255),c
   777  001236  0E06               	movlw	6
   778  001238  6E43               	movwf	_OscFreqIndex,c
   779  00123A  5020               	movf	??_SetFreq_8MHZ& (0+255),w,c
   780  00123C  0E00               	movlw	0
   781  00123E  6E3F               	movwf	_OscFreq,c
   782  001240  0E12               	movlw	18
   783  001242  6E40               	movwf	_OscFreq+1,c
   784  001244  0E7A               	movlw	122
   785  001246  6E41               	movwf	_OscFreq+2,c
   786  001248  0E00               	movlw	0
   787  00124A  6E42               	movwf	_OscFreq+3,c
   788  00124C  0012               	return	
   789  00124E                     __end_of_SetFreq_8MHZ:
   790                           	opt stack 0
   791                           tosu	equ	0xFFF
   792                           tosh	equ	0xFFE
   793                           tosl	equ	0xFFD
   794                           pclath	equ	0xFFA
   795                           tblptru	equ	0xFF8
   796                           tblptrh	equ	0xFF7
   797                           tblptrl	equ	0xFF6
   798                           tablat	equ	0xFF5
   799                           prodh	equ	0xFF4
   800                           prodl	equ	0xFF3
   801                           intcon	equ	0xFF2
   802                           postinc0	equ	0xFEE
   803                           wreg	equ	0xFE8
   804                           postdec1	equ	0xFE5
   805                           fsr1l	equ	0xFE1
   806                           
   807 ;; *************** function _LowPriority_InterruptHandler *****************
   808 ;; Defined at:
   809 ;;		line 21 in file "EAB_InterruptHandler.c"
   810 ;; Parameters:    Size  Location     Type
   811 ;;		None
   812 ;; Auto vars:     Size  Location     Type
   813 ;;		None
   814 ;; Return value:  Size  Location     Type
   815 ;;		None               void
   816 ;; Registers used:
   817 ;;		None
   818 ;; Tracked objects:
   819 ;;		On entry : 0/0
   820 ;;		On exit  : 0/0
   821 ;;		Unchanged: 0/0
   822 ;; Data sizes:     COMRAM   BANK0   BANK1   BANK2   BANK3   BANK4   BANK5   BANK6   BANK7   BANK8   BANK9  BANK10  BANK1
      +1  BANK12  BANK13  BANK14  BANK15
   823 ;;      Params:         0       0       0       0       0       0       0       0       0       0       0       0       
      +0       0       0       0       0
   824 ;;      Locals:         0       0       0       0       0       0       0       0       0       0       0       0       
      +0       0       0       0       0
   825 ;;      Temps:         17       0       0       0       0       0       0       0       0       0       0       0       
      +0       0       0       0       0
   826 ;;      Totals:        17       0       0       0       0       0       0       0       0       0       0       0       
      +0       0       0       0       0
   827 ;;Total ram usage:       17 bytes
   828 ;; Hardware stack levels used:    1
   829 ;; Hardware stack levels required when called:    1
   830 ;; This function calls:
   831 ;;		Nothing
   832 ;; This function is called by:
   833 ;;		Interrupt level 1
   834 ;; This function uses a non-reentrant model
   835 ;;
   836                           
   837                           	psect	intcodelo
   838  000018                     __pintcodelo:
   839                           	opt stack 0
   840  000018                     _LowPriority_InterruptHandler:
   841                           	opt stack 28
   842                           
   843                           ;incstack = 0
   844  000018  CFD8 F001          	movff	status,??_LowPriority_InterruptHandler
   845  00001C  CFE8 F002          	movff	wreg,??_LowPriority_InterruptHandler+1
   846  000020  CFE0 F003          	movff	bsr,??_LowPriority_InterruptHandler+2
   847  000024  CFFA F004          	movff	pclath,??_LowPriority_InterruptHandler+3
   848  000028  CFFB F005          	movff	pclatu,??_LowPriority_InterruptHandler+4
   849  00002C  CFE9 F006          	movff	fsr0l,??_LowPriority_InterruptHandler+5
   850  000030  CFEA F007          	movff	fsr0h,??_LowPriority_InterruptHandler+6
   851  000034  CFE1 F008          	movff	fsr1l,??_LowPriority_InterruptHandler+7
   852  000038  CFE2 F009          	movff	fsr1h,??_LowPriority_InterruptHandler+8
   853  00003C  CFD9 F00A          	movff	fsr2l,??_LowPriority_InterruptHandler+9
   854  000040  CFDA F00B          	movff	fsr2h,??_LowPriority_InterruptHandler+10
   855  000044  CFF3 F00C          	movff	prodl,??_LowPriority_InterruptHandler+11
   856  000048  CFF4 F00D          	movff	prodh,??_LowPriority_InterruptHandler+12
   857  00004C  CFF6 F00E          	movff	tblptrl,??_LowPriority_InterruptHandler+13
   858  000050  CFF7 F00F          	movff	tblptrh,??_LowPriority_InterruptHandler+14
   859  000054  CFF8 F010          	movff	tblptru,??_LowPriority_InterruptHandler+15
   860  000058  CFF5 F011          	movff	tablat,??_LowPriority_InterruptHandler+16
   861  00005C  C011  FFF5         	movff	??_LowPriority_InterruptHandler+16,tablat
   862  000060  C010  FFF8         	movff	??_LowPriority_InterruptHandler+15,tblptru
   863  000064  C00F  FFF7         	movff	??_LowPriority_InterruptHandler+14,tblptrh
   864  000068  C00E  FFF6         	movff	??_LowPriority_InterruptHandler+13,tblptrl
   865  00006C  C00D  FFF4         	movff	??_LowPriority_InterruptHandler+12,prodh
   866  000070  C00C  FFF3         	movff	??_LowPriority_InterruptHandler+11,prodl
   867  000074  C00B  FFDA         	movff	??_LowPriority_InterruptHandler+10,fsr2h
   868  000078  C00A  FFD9         	movff	??_LowPriority_InterruptHandler+9,fsr2l
   869  00007C  C009  FFE2         	movff	??_LowPriority_InterruptHandler+8,fsr1h
   870  000080  C008  FFE1         	movff	??_LowPriority_InterruptHandler+7,fsr1l
   871  000084  C007  FFEA         	movff	??_LowPriority_InterruptHandler+6,fsr0h
   872  000088  C006  FFE9         	movff	??_LowPriority_InterruptHandler+5,fsr0l
   873  00008C  C005  FFFB         	movff	??_LowPriority_InterruptHandler+4,pclatu
   874  000090  C004  FFFA         	movff	??_LowPriority_InterruptHandler+3,pclath
   875  000094  C003  FFE0         	movff	??_LowPriority_InterruptHandler+2,bsr
   876  000098  C002  FFE8         	movff	??_LowPriority_InterruptHandler+1,wreg
   877  00009C  C001  FFD8         	movff	??_LowPriority_InterruptHandler,status
   878  0000A0  0010               	retfie	
   879  0000A2                     __end_of_LowPriority_InterruptHandler:
   880                           	opt stack 0
   881                           tosu	equ	0xFFF
   882                           tosh	equ	0xFFE
   883                           tosl	equ	0xFFD
   884                           pclatu	equ	0xFFB
   885                           pclath	equ	0xFFA
   886                           tblptru	equ	0xFF8
   887                           tblptrh	equ	0xFF7
   888                           tblptrl	equ	0xFF6
   889                           tablat	equ	0xFF5
   890                           prodh	equ	0xFF4
   891                           prodl	equ	0xFF3
   892                           intcon	equ	0xFF2
   893                           postinc0	equ	0xFEE
   894                           fsr0h	equ	0xFEA
   895                           fsr0l	equ	0xFE9
   896                           wreg	equ	0xFE8
   897                           postdec1	equ	0xFE5
   898                           fsr1h	equ	0xFE2
   899                           fsr1l	equ	0xFE1
   900                           bsr	equ	0xFE0
   901                           fsr2h	equ	0xFDA
   902                           fsr2l	equ	0xFD9
   903                           status	equ	0xFD8
   904                           
   905 ;; *************** function _HighPriority_InterruptHandler *****************
   906 ;; Defined at:
   907 ;;		line 14 in file "EAB_InterruptHandler.c"
   908 ;; Parameters:    Size  Location     Type
   909 ;;		None
   910 ;; Auto vars:     Size  Location     Type
   911 ;;		None
   912 ;; Return value:  Size  Location     Type
   913 ;;		None               void
   914 ;; Registers used:
   915 ;;		None
   916 ;; Tracked objects:
   917 ;;		On entry : 0/0
   918 ;;		On exit  : 0/0
   919 ;;		Unchanged: 0/0
   920 ;; Data sizes:     COMRAM   BANK0   BANK1   BANK2   BANK3   BANK4   BANK5   BANK6   BANK7   BANK8   BANK9  BANK10  BANK1
      +1  BANK12  BANK13  BANK14  BANK15
   921 ;;      Params:         0       0       0       0       0       0       0       0       0       0       0       0       
      +0       0       0       0       0
   922 ;;      Locals:         0       0       0       0       0       0       0       0       0       0       0       0       
      +0       0       0       0       0
   923 ;;      Temps:         14       0       0       0       0       0       0       0       0       0       0       0       
      +0       0       0       0       0
   924 ;;      Totals:        14       0       0       0       0       0       0       0       0       0       0       0       
      +0       0       0       0       0
   925 ;;Total ram usage:       14 bytes
   926 ;; Hardware stack levels used:    1
   927 ;; This function calls:
   928 ;;		Nothing
   929 ;; This function is called by:
   930 ;;		Interrupt level 2
   931 ;; This function uses a non-reentrant model
   932 ;;
   933                           
   934                           	psect	intcode
   935  000008                     __pintcode:
   936                           	opt stack 0
   937  000008                     _HighPriority_InterruptHandler:
   938                           	opt stack 28
   939                           
   940                           ;incstack = 0
   941  000008  CFFA F012          	movff	pclath,??_HighPriority_InterruptHandler
   942  00000C  CFFB F013          	movff	pclatu,??_HighPriority_InterruptHandler+1
   943  000010  EFB7  F008         	goto	int_func
   944                           tosu	equ	0xFFF
   945                           tosh	equ	0xFFE
   946                           tosl	equ	0xFFD
   947                           pclatu	equ	0xFFB
   948                           pclath	equ	0xFFA
   949                           tblptru	equ	0xFF8
   950                           tblptrh	equ	0xFF7
   951                           tblptrl	equ	0xFF6
   952                           tablat	equ	0xFF5
   953                           prodh	equ	0xFF4
   954                           prodl	equ	0xFF3
   955                           intcon	equ	0xFF2
   956                           postinc0	equ	0xFEE
   957                           fsr0h	equ	0xFEA
   958                           fsr0l	equ	0xFE9
   959                           wreg	equ	0xFE8
   960                           postdec1	equ	0xFE5
   961                           fsr1h	equ	0xFE2
   962                           fsr1l	equ	0xFE1
   963                           bsr	equ	0xFE0
   964                           fsr2h	equ	0xFDA
   965                           fsr2l	equ	0xFD9
   966                           status	equ	0xFD8
   967                           
   968                           	psect	intcode_body
   969  00116E                     __pintcode_body:
   970                           	opt stack 28
   971  00116E                     int_func:
   972                           	opt stack 28
   973  00116E  CFE9 F014          	movff	fsr0l,??_HighPriority_InterruptHandler+2
   974  001172  CFEA F015          	movff	fsr0h,??_HighPriority_InterruptHandler+3
   975  001176  CFE1 F016          	movff	fsr1l,??_HighPriority_InterruptHandler+4
   976  00117A  CFE2 F017          	movff	fsr1h,??_HighPriority_InterruptHandler+5
   977  00117E  CFD9 F018          	movff	fsr2l,??_HighPriority_InterruptHandler+6
   978  001182  CFDA F019          	movff	fsr2h,??_HighPriority_InterruptHandler+7
   979  001186  CFF3 F01A          	movff	prodl,??_HighPriority_InterruptHandler+8
   980  00118A  CFF4 F01B          	movff	prodh,??_HighPriority_InterruptHandler+9
   981  00118E  CFF6 F01C          	movff	tblptrl,??_HighPriority_InterruptHandler+10
   982  001192  CFF7 F01D          	movff	tblptrh,??_HighPriority_InterruptHandler+11
   983  001196  CFF8 F01E          	movff	tblptru,??_HighPriority_InterruptHandler+12
   984  00119A  CFF5 F01F          	movff	tablat,??_HighPriority_InterruptHandler+13
   985  00119E  C01F  FFF5         	movff	??_HighPriority_InterruptHandler+13,tablat
   986  0011A2  C01E  FFF8         	movff	??_HighPriority_InterruptHandler+12,tblptru
   987  0011A6  C01D  FFF7         	movff	??_HighPriority_InterruptHandler+11,tblptrh
   988  0011AA  C01C  FFF6         	movff	??_HighPriority_InterruptHandler+10,tblptrl
   989  0011AE  C01B  FFF4         	movff	??_HighPriority_InterruptHandler+9,prodh
   990  0011B2  C01A  FFF3         	movff	??_HighPriority_InterruptHandler+8,prodl
   991  0011B6  C019  FFDA         	movff	??_HighPriority_InterruptHandler+7,fsr2h
   992  0011BA  C018  FFD9         	movff	??_HighPriority_InterruptHandler+6,fsr2l
   993  0011BE  C017  FFE2         	movff	??_HighPriority_InterruptHandler+5,fsr1h
   994  0011C2  C016  FFE1         	movff	??_HighPriority_InterruptHandler+4,fsr1l
   995  0011C6  C015  FFEA         	movff	??_HighPriority_InterruptHandler+3,fsr0h
   996  0011CA  C014  FFE9         	movff	??_HighPriority_InterruptHandler+2,fsr0l
   997  0011CE  C013  FFFB         	movff	??_HighPriority_InterruptHandler+1,pclatu
   998  0011D2  C012  FFFA         	movff	??_HighPriority_InterruptHandler,pclath
   999  0011D6  0011               	retfie		f
  1000  0011D8                     __end_of_HighPriority_InterruptHandler:
  1001                           	opt stack 0
  1002                           tosu	equ	0xFFF
  1003                           tosh	equ	0xFFE
  1004                           tosl	equ	0xFFD
  1005                           pclatu	equ	0xFFB
  1006                           pclath	equ	0xFFA
  1007                           tblptru	equ	0xFF8
  1008                           tblptrh	equ	0xFF7
  1009                           tblptrl	equ	0xFF6
  1010                           tablat	equ	0xFF5
  1011                           prodh	equ	0xFF4
  1012                           prodl	equ	0xFF3
  1013                           intcon	equ	0xFF2
  1014                           postinc0	equ	0xFEE
  1015                           fsr0h	equ	0xFEA
  1016                           fsr0l	equ	0xFE9
  1017                           wreg	equ	0xFE8
  1018                           postdec1	equ	0xFE5
  1019                           fsr1h	equ	0xFE2
  1020                           fsr1l	equ	0xFE1
  1021                           bsr	equ	0xFE0
  1022                           fsr2h	equ	0xFDA
  1023                           fsr2l	equ	0xFD9
  1024                           status	equ	0xFD8
  1025                           tosu	equ	0xFFF
  1026                           tosh	equ	0xFFE
  1027                           tosl	equ	0xFFD
  1028                           pclatu	equ	0xFFB
  1029                           pclath	equ	0xFFA
  1030                           tblptru	equ	0xFF8
  1031                           tblptrh	equ	0xFF7
  1032                           tblptrl	equ	0xFF6
  1033                           tablat	equ	0xFF5
  1034                           prodh	equ	0xFF4
  1035                           prodl	equ	0xFF3
  1036                           intcon	equ	0xFF2
  1037                           postinc0	equ	0xFEE
  1038                           fsr0h	equ	0xFEA
  1039                           fsr0l	equ	0xFE9
  1040                           wreg	equ	0xFE8
  1041                           postdec1	equ	0xFE5
  1042                           fsr1h	equ	0xFE2
  1043                           fsr1l	equ	0xFE1
  1044                           bsr	equ	0xFE0
  1045                           fsr2h	equ	0xFDA
  1046                           fsr2l	equ	0xFD9
  1047                           status	equ	0xFD8
  1048                           
  1049                           	psect	rparam
  1050  0000                     tosu	equ	0xFFF
  1051                           tosh	equ	0xFFE
  1052                           tosl	equ	0xFFD
  1053                           pclatu	equ	0xFFB
  1054                           pclath	equ	0xFFA
  1055                           tblptru	equ	0xFF8
  1056                           tblptrh	equ	0xFF7
  1057                           tblptrl	equ	0xFF6
  1058                           tablat	equ	0xFF5
  1059                           prodh	equ	0xFF4
  1060                           prodl	equ	0xFF3
  1061                           intcon	equ	0xFF2
  1062                           postinc0	equ	0xFEE
  1063                           fsr0h	equ	0xFEA
  1064                           fsr0l	equ	0xFE9
  1065                           wreg	equ	0xFE8
  1066                           postdec1	equ	0xFE5
  1067                           fsr1h	equ	0xFE2
  1068                           fsr1l	equ	0xFE1
  1069                           bsr	equ	0xFE0
  1070                           fsr2h	equ	0xFDA
  1071                           fsr2l	equ	0xFD9
  1072                           status	equ	0xFD8


Data Sizes:
    Strings     0
    Constant    109
    Data        27
    BSS         2
    Persistent  0
    Stack       0

Auto Spaces:
    Space          Size  Autos    Used
    COMRAM           95     40      69
    BANK0           160      0       0
    BANK1           256      0       0
    BANK2           256      0       0
    BANK3           256      0       0
    BANK4           256      0       0
    BANK5           256      0       0
    BANK6           256      0       0
    BANK7           256      0       0
    BANK8           256      0       0
    BANK9           256      0       0
    BANK10          256      0       0
    BANK11          256      0       0
    BANK12          256      0       0
    BANK13          256      0       0
    BANK14          256      0       0
    BANK15           56      0       0

Pointer List with Targets:

    S646$EnableInterrupt	PTR FTN(unsigned char ,)unsigned char  size(2) Largest target is 1
		 -> Timer1Int(), 

    Timer1.EnableInterrupt	PTR FTN(unsigned char ,)unsigned char  size(2) Largest target is 1
		 -> Timer1Int(), 

    S646$SetPeriod	PTR FTN(unsigned char ,)unsigned char  size(2) Largest target is 1
		 -> SetTimer1(), 

    Timer1.SetPeriod	PTR FTN(unsigned char ,)unsigned char  size(2) Largest target is 1
		 -> SetTimer1(), 

    S133$EnableInterrupt	PTR FTN(unsigned char ,)unsigned char  size(2) Largest target is 1
		 -> Timer2Int(), 

    Timer2.EnableInterrupt	PTR FTN(unsigned char ,)unsigned char  size(2) Largest target is 1
		 -> Timer2Int(), 

    S133$SetPeriod	PTR FTN(unsigned char ,unsigned char ,unsigned char ,)unsigned char  size(2) Largest target is 1
		 -> SetTimer2(), 

    Timer2.SetPeriod	PTR FTN(unsigned char ,unsigned char ,unsigned char ,)unsigned char  size(2) Largest target is 1
		 -> SetTimer2(), 

    S133$SetPeriod_100microSec	PTR FTN()unsigned char  size(2) Largest target is 1
		 -> SetTimer2_100microSec(), 

    Timer2.SetPeriod_100microSec	PTR FTN()unsigned char  size(2) Largest target is 1
		 -> SetTimer2_100microSec(), 

    S133$SetPeriod_1milliSec	PTR FTN()unsigned char  size(2) Largest target is 1
		 -> SetTimer2_1millSec(), 

    Timer2.SetPeriod_1milliSec	PTR FTN()unsigned char  size(2) Largest target is 1
		 -> SetTimer2_1millSec(), 

    S78$EnableInterruptHIGH	PTR FTN()unsigned char  size(2) Largest target is 1
		 -> Timer0Int(), 

    Timer0.EnableInterruptHIGH	PTR FTN()unsigned char  size(2) Largest target is 1
		 -> Timer0Int(), 

    S78$SetPeriod	PTR FTN(unsigned char ,unsigned char ,)unsigned char  size(2) Largest target is 1
		 -> SetTimer0(), 

    Timer0.SetPeriod	PTR FTN(unsigned char ,unsigned char ,)unsigned char  size(2) Largest target is 1
		 -> SetTimer0(), 

    S78$SetPeriod_1milliSec	PTR FTN()unsigned char  size(2) Largest target is 1
		 -> SetTimer0_1millSec(), 

    Timer0.SetPeriod_1milliSec	PTR FTN()unsigned char  size(2) Largest target is 1
		 -> SetTimer0_1millSec(), 

    S78$SetPeriod_16milliSec	PTR FTN()unsigned char  size(2) Largest target is 1
		 -> SetTimer0_16milliSec(), 

    Timer0.SetPeriod_16milliSec	PTR FTN()unsigned char  size(2) Largest target is 1
		 -> SetTimer0_16milliSec(), 

    S78$SetPeriod_130milliSec	PTR FTN()unsigned char  size(2) Largest target is 1
		 -> SetTimer0_130milliSec(), 

    Timer0.SetPeriod_130milliSec	PTR FTN()unsigned char  size(2) Largest target is 1
		 -> SetTimer0_130milliSec(), 

    S78$SetPeriod_1Sec	PTR FTN()unsigned char  size(2) Largest target is 1
		 -> SetTimer0_1Sec(), 

    Timer0.SetPeriod_1Sec	PTR FTN()unsigned char  size(2) Largest target is 1
		 -> SetTimer0_1Sec(), 

    S37$GetFreq	PTR FTN()long  size(2) Largest target is 4
		 -> GetFreq(), 

    Oscillator.GetFreq	PTR FTN()long  size(2) Largest target is 4
		 -> GetFreq(), 

    S37$SetFreq_64MHZ	PTR FTN()unsigned char  size(2) Largest target is 1
		 -> SetFreq_64MHZ(), 

    Oscillator.SetFreq_64MHZ	PTR FTN()unsigned char  size(2) Largest target is 1
		 -> SetFreq_64MHZ(), 

    S37$SetFreq_32MHZ	PTR FTN()unsigned char  size(2) Largest target is 1
		 -> SetFreq_32MHZ(), 

    Oscillator.SetFreq_32MHZ	PTR FTN()unsigned char  size(2) Largest target is 1
		 -> SetFreq_32MHZ(), 

    S37$SetFreq_16MHZ	PTR FTN()unsigned char  size(2) Largest target is 1
		 -> SetFreq_16MHZ(), 

    Oscillator.SetFreq_16MHZ	PTR FTN()unsigned char  size(2) Largest target is 1
		 -> SetFreq_16MHZ(), 

    S37$SetFreq_8MHZ	PTR FTN()unsigned char  size(2) Largest target is 1
		 -> SetFreq_8MHZ(), 

    Oscillator.SetFreq_8MHZ	PTR FTN()unsigned char  size(2) Largest target is 1
		 -> SetFreq_8MHZ(), 

    S37$SetFreq_4MHZ	PTR FTN()unsigned char  size(2) Largest target is 1
		 -> SetFreq_4MHZ(), 

    Oscillator.SetFreq_4MHZ	PTR FTN()unsigned char  size(2) Largest target is 1
		 -> SetFreq_4MHZ(), 

    S37$SetFreq_2MHZ	PTR FTN()unsigned char  size(2) Largest target is 1
		 -> SetFreq_2MHZ(), 

    Oscillator.SetFreq_2MHZ	PTR FTN()unsigned char  size(2) Largest target is 1
		 -> SetFreq_2MHZ(), 

    S37$SetFreq_1MHZ	PTR FTN()unsigned char  size(2) Largest target is 1
		 -> SetFreq_1MHZ(), 

    Oscillator.SetFreq_1MHZ	PTR FTN()unsigned char  size(2) Largest target is 1
		 -> SetFreq_1MHZ(), 

    S37$SetFreq_500KHZ	PTR FTN()unsigned char  size(2) Largest target is 1
		 -> SetFreq_500KHZ(), 

    Oscillator.SetFreq_500KHZ	PTR FTN()unsigned char  size(2) Largest target is 1
		 -> SetFreq_500KHZ(), 

    S37$SetFreq_250KHZ	PTR FTN()unsigned char  size(2) Largest target is 1
		 -> SetFreq_250KHZ(), 

    Oscillator.SetFreq_250KHZ	PTR FTN()unsigned char  size(2) Largest target is 1
		 -> SetFreq_250KHZ(), 

    S37$SetFreq_31KHZ	PTR FTN()unsigned char  size(2) Largest target is 1
		 -> SetFreq_31_25KHZ(), 

    Oscillator.SetFreq_31KHZ	PTR FTN()unsigned char  size(2) Largest target is 1
		 -> SetFreq_31_25KHZ(), 


Critical Paths under _main in COMRAM

    _main->_SetTimer2

Critical Paths under _HighPriority_InterruptHandler in COMRAM

    None.

Critical Paths under _LowPriority_InterruptHandler in COMRAM

    None.

Critical Paths under _main in BANK0

    None.

Critical Paths under _HighPriority_InterruptHandler in BANK0

    None.

Critical Paths under _LowPriority_InterruptHandler in BANK0

    None.

Critical Paths under _main in BANK1

    None.

Critical Paths under _HighPriority_InterruptHandler in BANK1

    None.

Critical Paths under _LowPriority_InterruptHandler in BANK1

    None.

Critical Paths under _main in BANK2

    None.

Critical Paths under _HighPriority_InterruptHandler in BANK2

    None.

Critical Paths under _LowPriority_InterruptHandler in BANK2

    None.

Critical Paths under _main in BANK3

    None.

Critical Paths under _HighPriority_InterruptHandler in BANK3

    None.

Critical Paths under _LowPriority_InterruptHandler in BANK3

    None.

Critical Paths under _main in BANK4

    None.

Critical Paths under _HighPriority_InterruptHandler in BANK4

    None.

Critical Paths under _LowPriority_InterruptHandler in BANK4

    None.

Critical Paths under _main in BANK5

    None.

Critical Paths under _HighPriority_InterruptHandler in BANK5

    None.

Critical Paths under _LowPriority_InterruptHandler in BANK5

    None.

Critical Paths under _main in BANK6

    None.

Critical Paths under _HighPriority_InterruptHandler in BANK6

    None.

Critical Paths under _LowPriority_InterruptHandler in BANK6

    None.

Critical Paths under _main in BANK7

    None.

Critical Paths under _HighPriority_InterruptHandler in BANK7

    None.

Critical Paths under _LowPriority_InterruptHandler in BANK7

    None.

Critical Paths under _main in BANK8

    None.

Critical Paths under _HighPriority_InterruptHandler in BANK8

    None.

Critical Paths under _LowPriority_InterruptHandler in BANK8

    None.

Critical Paths under _main in BANK9

    None.

Critical Paths under _HighPriority_InterruptHandler in BANK9

    None.

Critical Paths under _LowPriority_InterruptHandler in BANK9

    None.

Critical Paths under _main in BANK10

    None.

Critical Paths under _HighPriority_InterruptHandler in BANK10

    None.

Critical Paths under _LowPriority_InterruptHandler in BANK10

    None.

Critical Paths under _main in BANK11

    None.

Critical Paths under _HighPriority_InterruptHandler in BANK11

    None.

Critical Paths under _LowPriority_InterruptHandler in BANK11

    None.

Critical Paths under _main in BANK12

    None.

Critical Paths under _HighPriority_InterruptHandler in BANK12

    None.

Critical Paths under _LowPriority_InterruptHandler in BANK12

    None.

Critical Paths under _main in BANK13

    None.

Critical Paths under _HighPriority_InterruptHandler in BANK13

    None.

Critical Paths under _LowPriority_InterruptHandler in BANK13

    None.

Critical Paths under _main in BANK14

    None.

Critical Paths under _HighPriority_InterruptHandler in BANK14

    None.

Critical Paths under _LowPriority_InterruptHandler in BANK14

    None.

Critical Paths under _main in BANK15

    None.

Critical Paths under _HighPriority_InterruptHandler in BANK15

    None.

Critical Paths under _LowPriority_InterruptHandler in BANK15

    None.

Call Graph Tables:

 ---------------------------------------------------------------------------------
 (Depth) Function   	        Calls       Base Space   Used Autos Params    Refs
 ---------------------------------------------------------------------------------
 (0) _main                                                 5     5      0     113
                                             35 COMRAM     5     5      0
                       _SetFreq_8MHZ *
                     _SetTimer0_1Sec *
                          _SetTimer2 *
 ---------------------------------------------------------------------------------
 (1) _SetTimer2                                            4     2      2     113
                                             31 COMRAM     4     2      2
 ---------------------------------------------------------------------------------
 (1) _SetTimer0_1Sec                                       0     0      0       0
 ---------------------------------------------------------------------------------
 (1) _SetFreq_8MHZ                                         1     1      0       0
                                             31 COMRAM     1     1      0
 ---------------------------------------------------------------------------------
 Estimated maximum stack depth 1
 ---------------------------------------------------------------------------------
 (Depth) Function   	        Calls       Base Space   Used Autos Params    Refs
 ---------------------------------------------------------------------------------
 (2) _LowPriority_InterruptHandler                        17    17      0       0
                                              0 COMRAM    17    17      0
 ---------------------------------------------------------------------------------
 Estimated maximum stack depth 2
 ---------------------------------------------------------------------------------
 (Depth) Function   	        Calls       Base Space   Used Autos Params    Refs
 ---------------------------------------------------------------------------------
 (3) _HighPriority_InterruptHandler                       14    14      0       0
                                             17 COMRAM    14    14      0
 ---------------------------------------------------------------------------------
 Estimated maximum stack depth 3
 ---------------------------------------------------------------------------------

 Call Graph Graphs:

 _main (ROOT)
   _SetFreq_8MHZ *
   _SetTimer0_1Sec *
   _SetTimer2 *

 _LowPriority_InterruptHandler (ROOT)

 _HighPriority_InterruptHandler (ROOT)

 Address spaces:
Name               Size   Autos  Total    Cost      Usage
BIGRAM             F37      0       0      37        0.0%
EEDATA             400      0       0       0        0.0%
BITBANK14          100      0       0      33        0.0%
BANK14             100      0       0      34        0.0%
BITBANK13          100      0       0      31        0.0%
BANK13             100      0       0      32        0.0%
BITBANK12          100      0       0      29        0.0%
BANK12             100      0       0      30        0.0%
BITBANK11          100      0       0      27        0.0%
BANK11             100      0       0      28        0.0%
BITBANK10          100      0       0      25        0.0%
BANK10             100      0       0      26        0.0%
BITBANK9           100      0       0      23        0.0%
BANK9              100      0       0      24        0.0%
BITBANK8           100      0       0      21        0.0%
BANK8              100      0       0      22        0.0%
BITBANK7           100      0       0      19        0.0%
BANK7              100      0       0      20        0.0%
BITBANK6           100      0       0      17        0.0%
BANK6              100      0       0      18        0.0%
BITBANK5           100      0       0      15        0.0%
BANK5              100      0       0      16        0.0%
BITBANK4           100      0       0      13        0.0%
BANK4              100      0       0      14        0.0%
BITBANK3           100      0       0      10        0.0%
BANK3              100      0       0      11        0.0%
BITBANK2           100      0       0       8        0.0%
BANK2              100      0       0       9        0.0%
BITBANK1           100      0       0       6        0.0%
BANK1              100      0       0       7        0.0%
BITBANK0            A0      0       0       4        0.0%
BANK0               A0      0       0       5        0.0%
BITCOMRAM           5F      0       0       0        0.0%
COMRAM              5F     28      45       1       72.6%
BITBANK15           38      0       0      35        0.0%
BANK15              38      0       0      36        0.0%
BITSFR_1             0      0       0      40        0.0%
SFR_1                0      0       0      40        0.0%
BITSFR               0      0       0      40        0.0%
SFR                  0      0       0      40        0.0%
STACK                0      0       0       2        0.0%
NULL                 0      0       0       0        0.0%
ABS                  0      0      45      12        0.0%
DATA                 0      0      45       3        0.0%
CODE                 0      0       0       0        0.0%


Microchip Technology PIC18 Macro Assembler V1.30 build 55553 
Symbol Table                                                                                   Sun Aug 17 23:20:27 2014

                                    u50 1138                                      u18 1074  
                                    u19 1086                                      u28 10A2  
                                    u29 10B4                                      u70 115A  
                                    u38 10D0                                      u39 111A  
                                    u56 113A                                      u76 115C  
                                    bsr 000FE0                                     l823 112A  
                                   l829 114C                                     _PR2 000FBB  
                                   tosl 000FFD                                     wreg 000FE8  
                       ?_SetTimer0_1Sec 0001                            __CFG_LVP$OFF 000000  
                        _TIMER0_130mSec 101F                          _TIMER2_100usec 1033  
                                  _main 1070                                    fsr0h 000FEA  
                                  fsr1h 000FE2                                    fsr0l 000FE9  
                                  fsr2h 000FDA                                    fsr1l 000FE1  
                                  fsr2l 000FD9                   __end_of_TIMER0_16mSec 105A  
                                  pclat 000FFA                                    prodh 000FF4  
                                  prodl 000FF3                                    start 00A2  
                                 ?_main 0001                                   _T0CON 000FD5  
                                 _T2CON 000FBA                          __CFG_DEBUG$OFF 000000  
                __end_of_TIMER0_130mSec 1029                  __end_of_TIMER2_100usec 103D  
                                 pclath 000FFA                                   tablat 000FF5  
                                 status 000FD8                         __initialization 11D8  
                          __end_of_main 116E                                  ??_main 0024  
                         __activetblptr 000003                   _SetTimer0_130milliSec 000000  
            __end_of_TIMER2_PR2_100usec 1063                          __CFG_WDTEN$OFF 000000  
                                _OSCCON 000FD3                              _Oscillator 0029  
                                _Timer0 1001                                  _Timer1 1069  
                                _Timer2 1010                      __size_of_SetTimer2 002A  
                         ?_SetFreq_8MHZ 0001                    _SetTimer0_16milliSec 000000  
                          __pdataCOMRAM 0029                            __mediumconst 0000  
                                tblptrh 000FF7                                  tblptrl 000FF6  
                                tblptru 000FF8                              __accesstop 0060  
               __end_of__initialization 11FC                   _SetTimer2_100microSec 000000  
                        __pcstackCOMRAM 0001                          ??_SetFreq_8MHZ 0020  
                      ??_SetTimer0_1Sec 0020                             _PinFunction 000F38  
                     __end_of_SetTimer2 122C                              _delayCount 0044  
                         _SetFreq_32MHZ 000000                           _SetFreq_16MHZ 000000  
 __end_of_HighPriority_InterruptHandler 11D8  __size_of_HighPriority_InterruptHandler 11D0  
         _HighPriority_InterruptHandler 0008                           _SetFreq_64MHZ 000000  
                      _TIMER2_PR2_1msec 1047                                 _GetFreq 000000  
                               _OscFreq 003F                                 __Hparam 0000  
                               __Lparam 0000                            __psmallconst 1000  
                               __pcinit 11D8                                 __ramtop 1000  
                               __ptext0 1070                                 __ptext1 1202  
                               __ptext2 124E                                 __ptext3 122C  
                             _T0CONbits 000FD5                               _T1CONbits 000FCD  
                             _T2CONbits 000FBA                          __pintcode_body 116E  
                  end_of_initialization 11FC                    __end_of_SetFreq_8MHZ 124E  
                               int_func 116E                      _TIMER2_PR2_100usec 105A  
                               postdec1 000FE5                                 postinc0 000FEE  
  __end_of_LowPriority_InterruptHandler 00A2   __size_of_LowPriority_InterruptHandler 008A  
          _LowPriority_InterruptHandler 0018                        __CFG_FOSC$INTIO7 000000  
        ?_HighPriority_InterruptHandler 0001                           _TIMER0_16mSec 1051  
                  __end_of_TIMER0_1mSec 1069                    __end_of_TIMER2_1msec 1047  
                        __end_of_Timer0 1010                          __end_of_Timer1 106E  
                        __end_of_Timer2 101F                           __pidataCOMRAM 126C  
         ?_LowPriority_InterruptHandler 0001                     start_initialization 11D8  
                          _PinDirection 000F92                               _SetTimer0 000000  
                             _SetTimer1 000000                               _SetTimer2 1202  
                             _Timer0Int 000000                               _Timer1Int 000000  
                             _Timer2Int 000000                __end_of_TIMER2_PR2_1msec 1051  
                    _SetTimer0_1millSec 000000                      _SetTimer2_1millSec 000000  
                           __pbssCOMRAM 0044                   __size_of_SetFreq_8MHZ 0022  
                          _OscFreqIndex 0043                              ?_SetTimer2 0020  
                             __pintcode 0008                            _SetFreq_1MHZ 000000  
                          _SetFreq_2MHZ 000000                            _SetFreq_4MHZ 000000  
                           __pintcodelo 0018                            _SetFreq_8MHZ 122C  
                           __smallconst 1000          ??_LowPriority_InterruptHandler 0001  
                        _SetFreq_250KHZ 000000                          _SetFreq_500KHZ 000000  
               __size_of_SetTimer0_1Sec 001E                                _IPR1bits 000F9F  
                              _PIE1bits 000F9D                                _PIR1bits 000F9E  
                              _RCONbits 000FD0                         SetTimer2@period 0021  
                   __end_of_TIMER0_1Sec 1033                            _TIMER0_1mSec 1063  
                          _TIMER2_1msec 103D                               copy_data0 11F0  
                           ??_SetTimer2 0022                                _PinWrite 000F89  
                              __Hrparam 0000         ??_HighPriority_InterruptHandler 0012  
                              __Lrparam 0000                     SetTimer2@postscalar 0020  
                           _OSCCON2bits 000FD2                        _SetFreq_31_25KHZ 000000  
                         __size_of_main 00FE                             _TIMER0_1Sec 1029  
                           _OSCTUNEbits 000F9B                              _INTCONbits 000FF2  
                    SetTimer2@prescalar 0023                          _SetTimer0_1Sec 124E  
                              intlevel1 0000                                intlevel2 0000  
                            _OSCCONbits 000FD3                  __end_of_SetTimer0_1Sec 126C  
